target datalayout = "e-m:e-p270:32:32-p271:32:32-p272:64:64-i64:64-i128:128-f80:128-n8:16:32:64-S128"
target triple = "x86_64-pc-linux-gnu"

%struct.Expr_ = type { ptr, %union.SourceSpan, i16, %union.anon.29 }
%union.SourceSpan = type { i64 }
%union.anon.29 = type { %struct.ExprAnySwitch }
%struct.ExprAnySwitch = type { i8, %union.anon.31 }
%union.anon.31 = type { %struct.anon.32 }
%struct.anon.32 = type { ptr, %union.SourceSpan, ptr }
%struct.Type_ = type { i32, ptr, ptr, ptr, %union.anon.85, ptr, ptr, %union.anon.87 }
%union.anon.85 = type { ptr }
%union.anon.87 = type { %struct.TypeFunction }
%struct.TypeFunction = type { ptr, ptr, ptr }
%struct.Decl_ = type { ptr, ptr, %union.SourceSpan, i64, %union.anon, i32, %union.anon.0, i64, ptr, ptr, ptr, %union.anon.1 }
%union.anon = type { ptr }
%union.anon.0 = type { i16 }
%union.anon.1 = type { %struct.FuncDecl }
%struct.FuncDecl = type { i32, [4 x i8], %struct.Signature_, i32, i32, %union.anon.8 }
%struct.Signature_ = type <{ %struct.CalleeAttributes, i16, i8, i32, i32, [4 x i8], ptr }>
%struct.CalleeAttributes = type { i8 }
%union.anon.8 = type { %struct.anon.9 }
%struct.anon.9 = type { i16, %union.anon.10 }
%union.anon.10 = type { ptr }
%struct.ExprConst = type { i16, %union.anon.38 }
%union.anon.38 = type { %struct.Int }
%struct.Int = type { %struct.Int128_, i32 }
%struct.Int128_ = type { i64, i64 }
%struct.VarDecl_ = type { i32, i32, %union.anon.14, %union.anon.15 }
%union.anon.14 = type { ptr }
%union.anon.15 = type { %struct.anon.16 }
%struct.anon.16 = type { ptr, %union.SourceSpan }

@.str.16 = private unnamed_addr constant [91 x i8] c"The value '%s' is out of range for %s, so you need an explicit cast to truncate the value.\00", align 1
@.str.17 = private unnamed_addr constant [49 x i8] c"The unicode character U+%04x cannot fit in a %s.\00", align 1
@.str.18 = private unnamed_addr constant [93 x i8] c"The ordinal '%d' is out of range for %s, so you need an explicit cast to truncate the value.\00", align 1

; Function Attrs: nounwind uwtable
define internal void @sema_error_const_int_out_of_range(ptr noundef %0, ptr noundef %1, ptr noundef %2) #0 {
  %4 = alloca ptr, align 8
  %5 = alloca ptr, align 8
  %6 = alloca ptr, align 8
  %7 = alloca ptr, align 8
  store ptr %0, ptr %4, align 8
  store ptr %1, ptr %5, align 8
  store ptr %2, ptr %6, align 8
  %8 = load ptr, ptr %4, align 8
  %9 = getelementptr inbounds %struct.Expr_, ptr %8, i32 0, i32 3
  %10 = load i16, ptr %9, align 8
  %11 = lshr i16 %10, 8
  %12 = and i16 %11, 1
  %13 = trunc i16 %12 to i1
  br i1 %13, label %14, label %35

14:                                               ; preds = %3
  %15 = load ptr, ptr %4, align 8
  %16 = getelementptr inbounds %struct.Expr_, ptr %15, i32 0, i32 0
  %17 = load ptr, ptr %16, align 8
  %18 = getelementptr inbounds %struct.Type_, ptr %17, i32 0, i32 0
  %19 = load i32, ptr %18, align 8
  %20 = icmp ne i32 %19, 12
  br i1 %20, label %21, label %35

21:                                               ; preds = %14
  %22 = load ptr, ptr %5, align 8
  %23 = getelementptr inbounds %struct.Expr_, ptr %22, i32 0, i32 1
  %24 = load ptr, ptr %4, align 8
  %25 = getelementptr inbounds %struct.Expr_, ptr %24, i32 0, i32 3
  %26 = getelementptr inbounds %struct.ExprConst, ptr %25, i32 0, i32 1
  %27 = getelementptr inbounds %struct.Int, ptr %26, i32 0, i32 0
  %28 = getelementptr inbounds %struct.Int128_, ptr %27, i32 0, i32 1
  %29 = load i64, ptr %28, align 8
  %30 = trunc i64 %29 to i32
  %31 = load ptr, ptr %6, align 8
  %32 = call ptr @type_quoted_error_string(ptr noundef %31)
  %33 = getelementptr inbounds %union.SourceSpan, ptr %23, i32 0, i32 0
  %34 = load i64, ptr %33, align 8
  call void (i64, ptr, ...) @sema_error_at(i64 %34, ptr noundef @.str.17, i32 noundef %30, ptr noundef %32)
  br label %81

35:                                               ; preds = %14, %3
  %36 = load ptr, ptr %4, align 8
  %37 = getelementptr inbounds %struct.Expr_, ptr %36, i32 0, i32 3
  %38 = load i16, ptr %37, align 8
  %39 = and i16 %38, 255
  %40 = zext i16 %39 to i32
  %41 = icmp eq i32 %40, 3
  br i1 %41, label %42, label %56

42:                                               ; preds = %35
  %43 = load ptr, ptr %5, align 8
  %44 = getelementptr inbounds %struct.Expr_, ptr %43, i32 0, i32 1
  %45 = load ptr, ptr %4, align 8
  %46 = getelementptr inbounds %struct.Expr_, ptr %45, i32 0, i32 3
  %47 = getelementptr inbounds %struct.ExprConst, ptr %46, i32 0, i32 1
  %48 = load ptr, ptr %47, align 8
  %49 = getelementptr inbounds %struct.Decl_, ptr %48, i32 0, i32 11
  %50 = getelementptr inbounds %struct.VarDecl_, ptr %49, i32 0, i32 3
  %51 = load i32, ptr %50, align 8
  %52 = load ptr, ptr %6, align 8
  %53 = call ptr @type_quoted_error_string(ptr noundef %52)
  %54 = getelementptr inbounds %union.SourceSpan, ptr %44, i32 0, i32 0
  %55 = load i64, ptr %54, align 8
  call void (i64, ptr, ...) @sema_error_at(i64 %55, ptr noundef @.str.18, i32 noundef %51, ptr noundef %53)
  br label %81

56:                                               ; preds = %35
  %57 = load ptr, ptr %4, align 8
  %58 = getelementptr inbounds %struct.Expr_, ptr %57, i32 0, i32 3
  %59 = load i16, ptr %58, align 8
  %60 = lshr i16 %59, 9
  %61 = and i16 %60, 1
  %62 = trunc i16 %61 to i1
  br i1 %62, label %63, label %68

63:                                               ; preds = %56
  %64 = load ptr, ptr %4, align 8
  %65 = getelementptr inbounds %struct.Expr_, ptr %64, i32 0, i32 3
  %66 = getelementptr inbounds %struct.ExprConst, ptr %65, i32 0, i32 1
  %67 = call ptr @int_to_str(ptr noundef byval(%struct.Int) align 8 %66, i32 noundef 16)
  br label %72

68:                                               ; preds = %56
  %69 = load ptr, ptr %4, align 8
  %70 = getelementptr inbounds %struct.Expr_, ptr %69, i32 0, i32 3
  %71 = call ptr @expr_const_to_error_string(ptr noundef %70)
  br label %72

72:                                               ; preds = %68, %63
  %73 = phi ptr [ %67, %63 ], [ %71, %68 ]
  store ptr %73, ptr %7, align 8
  %74 = load ptr, ptr %5, align 8
  %75 = getelementptr inbounds %struct.Expr_, ptr %74, i32 0, i32 1
  %76 = load ptr, ptr %7, align 8
  %77 = load ptr, ptr %6, align 8
  %78 = call ptr @type_quoted_error_string(ptr noundef %77)
  %79 = getelementptr inbounds %union.SourceSpan, ptr %75, i32 0, i32 0
  %80 = load i64, ptr %79, align 8
  call void (i64, ptr, ...) @sema_error_at(i64 %80, ptr noundef @.str.16, ptr noundef %76, ptr noundef %78)
  br label %81

81:                                               ; preds = %72, %42, %21
  ret void
}