; Function Attrs: nounwind uwtable
define internal fastcc void @sema_error_const_int_out_of_range(ptr noundef %0, ptr nocapture noundef readonly %1, ptr noundef %2) unnamed_addr #0 {
  %4 = getelementptr inbounds i8, ptr %0, i64 24
  %5 = load i16, ptr %4, align 8
  %6 = and i16 %5, 256
  %.not = icmp eq i16 %6, 0
  br i1 %.not, label %17, label %7

7:                                                ; preds = %3
  %8 = load ptr, ptr %0, align 8
  %9 = load i32, ptr %8, align 8
  %.not15 = icmp eq i32 %9, 12
  br i1 %.not15, label %17, label %10

10:                                               ; preds = %7
  %11 = getelementptr inbounds i8, ptr %1, i64 8
  %12 = getelementptr inbounds i8, ptr %0, i64 40
  %13 = load i64, ptr %12, align 8
  %14 = trunc i64 %13 to i32
  %15 = tail call ptr @type_quoted_error_string(ptr noundef %2) #10
  %16 = load i64, ptr %11, align 8
  tail call void (i64, ptr, ...) @sema_error_at(i64 %16, ptr noundef nonnull @.str.17, i32 noundef %14, ptr noundef %15) #10
  br label %40

17:                                               ; preds = %7, %3
  %18 = and i16 %5, 255
  %19 = icmp eq i16 %18, 3
  br i1 %19, label %20, label %28

20:                                               ; preds = %17
  %21 = getelementptr inbounds i8, ptr %1, i64 8
  %22 = getelementptr inbounds i8, ptr %0, i64 32
  %23 = load ptr, ptr %22, align 8
  %24 = getelementptr inbounds i8, ptr %23, i64 96
  %25 = load i32, ptr %24, align 8
  %26 = tail call ptr @type_quoted_error_string(ptr noundef %2) #10
  %27 = load i64, ptr %21, align 8
  tail call void (i64, ptr, ...) @sema_error_at(i64 %27, ptr noundef nonnull @.str.18, i32 noundef %25, ptr noundef %26) #10
  br label %40

28:                                               ; preds = %17
  %29 = and i16 %5, 512
  %.not16 = icmp eq i16 %29, 0
  br i1 %.not16, label %33, label %30

30:                                               ; preds = %28
  %31 = getelementptr inbounds i8, ptr %0, i64 32
  %32 = tail call ptr @int_to_str(ptr noundef nonnull byval(%struct.Int) align 8 %31, i32 noundef 16) #10
  br label %35

33:                                               ; preds = %28
  %34 = tail call ptr @expr_const_to_error_string(ptr noundef nonnull %4) #10
  br label %35

35:                                               ; preds = %33, %30
  %36 = phi ptr [ %32, %30 ], [ %34, %33 ]
  %37 = getelementptr inbounds i8, ptr %1, i64 8
  %38 = tail call ptr @type_quoted_error_string(ptr noundef %2) #10
  %39 = load i64, ptr %37, align 8
  tail call void (i64, ptr, ...) @sema_error_at(i64 %39, ptr noundef nonnull @.str.16, ptr noundef %36, ptr noundef %38) #10
  br label %40

40:                                               ; preds = %35, %20, %10
  ret void
}